#include <math.h>
#include <stdio.h>
#include <stdlib.h>
#include <string.h>

void main()
{
  int n,a[300],*pa,*pb,k=0,l,i=0,b[300];
  scanf("%d",&n);
  for(pa=a;pa<a+n;pa++)
  {
      scanf("%d",pa);    
  } 
  for(pa=a;pa<a+n;pa++)
  {
	  l=0;
	  for(pb=b;pb<b+k;pb++)
	  {
	      if(*pa==*pb)
			  l=1;
	  }
	  if(l==1)
		  continue;
      b[k]=*pa;
	  k++;
  }
  for(i=0;i<k;i++)
       {
          if(i==0)
          {
                printf("%d",b[i]);     
          }
          else
          printf(",%d",b[i]);
      } 
}