; ModuleID = '53/122.c'
source_filename = "53/122.c"
target datalayout = "e-m:e-p270:32:32-p271:32:32-p272:64:64-i64:64-f80:128-n8:16:32:64-S128"
target triple = "x86_64-pc-linux-gnu"

@.str = private unnamed_addr constant [3 x i8] c"%d\00", align 1
@.str.1 = private unnamed_addr constant [4 x i8] c",%d\00", align 1

; Function Attrs: noinline nounwind uwtable
define dso_local void @main() #0 {
  %1 = alloca i32, align 4
  %2 = alloca [300 x i32], align 16
  %3 = alloca i32*, align 8
  %4 = alloca i32*, align 8
  %5 = alloca i32, align 4
  %6 = alloca i32, align 4
  %7 = alloca i32, align 4
  %8 = alloca [300 x i32], align 16
  store i32 0, i32* %5, align 4
  store i32 0, i32* %7, align 4
  %9 = call i32 (i8*, ...) @__isoc99_scanf(i8* getelementptr inbounds ([3 x i8], [3 x i8]* @.str, i64 0, i64 0), i32* %1)
  %10 = getelementptr inbounds [300 x i32], [300 x i32]* %2, i64 0, i64 0
  store i32* %10, i32** %3, align 8
  br label %11

11:                                               ; preds = %21, %0
  %12 = load i32*, i32** %3, align 8
  %13 = getelementptr inbounds [300 x i32], [300 x i32]* %2, i64 0, i64 0
  %14 = load i32, i32* %1, align 4
  %15 = sext i32 %14 to i64
  %16 = getelementptr inbounds i32, i32* %13, i64 %15
  %17 = icmp ult i32* %12, %16
  br i1 %17, label %18, label %24

18:                                               ; preds = %11
  %19 = load i32*, i32** %3, align 8
  %20 = call i32 (i8*, ...) @__isoc99_scanf(i8* getelementptr inbounds ([3 x i8], [3 x i8]* @.str, i64 0, i64 0), i32* %19)
  br label %21

21:                                               ; preds = %18
  %22 = load i32*, i32** %3, align 8
  %23 = getelementptr inbounds i32, i32* %22, i32 1
  store i32* %23, i32** %3, align 8
  br label %11

24:                                               ; preds = %11
  %25 = getelementptr inbounds [300 x i32], [300 x i32]* %2, i64 0, i64 0
  store i32* %25, i32** %3, align 8
  br label %26

26:                                               ; preds = %65, %24
  %27 = load i32*, i32** %3, align 8
  %28 = getelementptr inbounds [300 x i32], [300 x i32]* %2, i64 0, i64 0
  %29 = load i32, i32* %1, align 4
  %30 = sext i32 %29 to i64
  %31 = getelementptr inbounds i32, i32* %28, i64 %30
  %32 = icmp ult i32* %27, %31
  br i1 %32, label %33, label %68

33:                                               ; preds = %26
  store i32 0, i32* %6, align 4
  %34 = getelementptr inbounds [300 x i32], [300 x i32]* %8, i64 0, i64 0
  store i32* %34, i32** %4, align 8
  br label %35

35:                                               ; preds = %50, %33
  %36 = load i32*, i32** %4, align 8
  %37 = getelementptr inbounds [300 x i32], [300 x i32]* %8, i64 0, i64 0
  %38 = load i32, i32* %5, align 4
  %39 = sext i32 %38 to i64
  %40 = getelementptr inbounds i32, i32* %37, i64 %39
  %41 = icmp ult i32* %36, %40
  br i1 %41, label %42, label %53

42:                                               ; preds = %35
  %43 = load i32*, i32** %3, align 8
  %44 = load i32, i32* %43, align 4
  %45 = load i32*, i32** %4, align 8
  %46 = load i32, i32* %45, align 4
  %47 = icmp eq i32 %44, %46
  br i1 %47, label %48, label %49

48:                                               ; preds = %42
  store i32 1, i32* %6, align 4
  br label %49

49:                                               ; preds = %48, %42
  br label %50

50:                                               ; preds = %49
  %51 = load i32*, i32** %4, align 8
  %52 = getelementptr inbounds i32, i32* %51, i32 1
  store i32* %52, i32** %4, align 8
  br label %35

53:                                               ; preds = %35
  %54 = load i32, i32* %6, align 4
  %55 = icmp eq i32 %54, 1
  br i1 %55, label %56, label %57

56:                                               ; preds = %53
  br label %65

57:                                               ; preds = %53
  %58 = load i32*, i32** %3, align 8
  %59 = load i32, i32* %58, align 4
  %60 = load i32, i32* %5, align 4
  %61 = sext i32 %60 to i64
  %62 = getelementptr inbounds [300 x i32], [300 x i32]* %8, i64 0, i64 %61
  store i32 %59, i32* %62, align 4
  %63 = load i32, i32* %5, align 4
  %64 = add nsw i32 %63, 1
  store i32 %64, i32* %5, align 4
  br label %65

65:                                               ; preds = %57, %56
  %66 = load i32*, i32** %3, align 8
  %67 = getelementptr inbounds i32, i32* %66, i32 1
  store i32* %67, i32** %3, align 8
  br label %26

68:                                               ; preds = %26
  store i32 0, i32* %7, align 4
  br label %69

69:                                               ; preds = %89, %68
  %70 = load i32, i32* %7, align 4
  %71 = load i32, i32* %5, align 4
  %72 = icmp slt i32 %70, %71
  br i1 %72, label %73, label %92

73:                                               ; preds = %69
  %74 = load i32, i32* %7, align 4
  %75 = icmp eq i32 %74, 0
  br i1 %75, label %76, label %82

76:                                               ; preds = %73
  %77 = load i32, i32* %7, align 4
  %78 = sext i32 %77 to i64
  %79 = getelementptr inbounds [300 x i32], [300 x i32]* %8, i64 0, i64 %78
  %80 = load i32, i32* %79, align 4
  %81 = call i32 (i8*, ...) @printf(i8* getelementptr inbounds ([3 x i8], [3 x i8]* @.str, i64 0, i64 0), i32 %80)
  br label %88

82:                                               ; preds = %73
  %83 = load i32, i32* %7, align 4
  %84 = sext i32 %83 to i64
  %85 = getelementptr inbounds [300 x i32], [300 x i32]* %8, i64 0, i64 %84
  %86 = load i32, i32* %85, align 4
  %87 = call i32 (i8*, ...) @printf(i8* getelementptr inbounds ([4 x i8], [4 x i8]* @.str.1, i64 0, i64 0), i32 %86)
  br label %88

88:                                               ; preds = %82, %76
  br label %89

89:                                               ; preds = %88
  %90 = load i32, i32* %7, align 4
  %91 = add nsw i32 %90, 1
  store i32 %91, i32* %7, align 4
  br label %69

92:                                               ; preds = %69
  ret void
}

declare dso_local i32 @__isoc99_scanf(i8*, ...) #1

declare dso_local i32 @printf(i8*, ...) #1


!llvm.module.flags = !{!0}
!llvm.ident = !{!1}

!0 = !{i32 1, !"wchar_size", i32 4}
!1 = !{!"clang version 10.0.0-4ubuntu1 "}
