; ModuleID = 'source-C-CXX/52/122.c'
source_filename = "source-C-CXX/52/122.c"
target datalayout = "e-m:e-p270:32:32-p271:32:32-p272:64:64-i64:64-f80:128-n8:16:32:64-S128"
target triple = "x86_64-pc-linux-gnu"

@.str = private unnamed_addr constant [3 x i8] c"%d\00", align 1
@.str.1 = private unnamed_addr constant [4 x i8] c",%d\00", align 1

; Function Attrs: nofree nounwind sspstrong uwtable
define dso_local void @main() local_unnamed_addr #0 {
  %1 = alloca i32, align 4
  %2 = alloca [300 x i32], align 16
  %3 = alloca [300 x i32], align 16
  %4 = bitcast i32* %1 to i8*
  call void @llvm.lifetime.start.p0i8(i64 4, i8* nonnull %4) #3
  %5 = bitcast [300 x i32]* %2 to i8*
  call void @llvm.lifetime.start.p0i8(i64 1200, i8* nonnull %5) #3
  %6 = bitcast [300 x i32]* %3 to i8*
  call void @llvm.lifetime.start.p0i8(i64 1200, i8* nonnull %6) #3
  %7 = call i32 (i8*, ...) @__isoc99_scanf(i8* getelementptr inbounds ([3 x i8], [3 x i8]* @.str, i64 0, i64 0), i32* nonnull %1)
  %8 = getelementptr inbounds [300 x i32], [300 x i32]* %2, i64 0, i64 0
  %9 = load i32, i32* %1, align 4, !tbaa !5
  %10 = sext i32 %9 to i64
  %11 = getelementptr inbounds [300 x i32], [300 x i32]* %2, i64 0, i64 %10
  %12 = icmp sgt i32 %9, 0
  br i1 %12, label %17, label %13

13:                                               ; preds = %17, %0
  %14 = phi i32* [ %11, %0 ], [ %23, %17 ]
  %15 = getelementptr inbounds [300 x i32], [300 x i32]* %3, i64 0, i64 0
  %16 = icmp ult i32* %8, %14
  br i1 %16, label %32, label %64

17:                                               ; preds = %0, %17
  %18 = phi i32* [ %20, %17 ], [ %8, %0 ]
  %19 = call i32 (i8*, ...) @__isoc99_scanf(i8* getelementptr inbounds ([3 x i8], [3 x i8]* @.str, i64 0, i64 0), i32* nonnull %18)
  %20 = getelementptr inbounds i32, i32* %18, i64 1
  %21 = load i32, i32* %1, align 4, !tbaa !5
  %22 = sext i32 %21 to i64
  %23 = getelementptr inbounds [300 x i32], [300 x i32]* %2, i64 0, i64 %22
  %24 = icmp ult i32* %20, %23
  br i1 %24, label %17, label %13, !llvm.loop !9

25:                                               ; preds = %53
  %26 = icmp sgt i32 %54, 0
  br i1 %26, label %27, label %64

27:                                               ; preds = %25
  %28 = zext i32 %54 to i64
  %29 = load i32, i32* %15, align 16, !tbaa !5
  %30 = call i32 (i8*, ...) @printf(i8* nonnull dereferenceable(1) getelementptr inbounds ([3 x i8], [3 x i8]* @.str, i64 0, i64 0), i32 %29)
  %31 = icmp eq i32 %54, 1
  br i1 %31, label %64, label %57

32:                                               ; preds = %13, %53
  %33 = phi i32 [ %54, %53 ], [ 0, %13 ]
  %34 = phi i32* [ %55, %53 ], [ %8, %13 ]
  %35 = sext i32 %33 to i64
  %36 = getelementptr inbounds [300 x i32], [300 x i32]* %3, i64 0, i64 %35
  %37 = icmp sgt i32 %33, 0
  br i1 %37, label %38, label %50

38:                                               ; preds = %32
  %39 = load i32, i32* %34, align 4, !tbaa !5
  br label %40

40:                                               ; preds = %38, %40
  %41 = phi i32 [ 0, %38 ], [ %45, %40 ]
  %42 = phi i32* [ %15, %38 ], [ %46, %40 ]
  %43 = load i32, i32* %42, align 4, !tbaa !5
  %44 = icmp eq i32 %39, %43
  %45 = select i1 %44, i32 1, i32 %41
  %46 = getelementptr inbounds i32, i32* %42, i64 1
  %47 = icmp ult i32* %46, %36
  br i1 %47, label %40, label %48, !llvm.loop !11

48:                                               ; preds = %40
  %49 = icmp eq i32 %45, 1
  br i1 %49, label %53, label %50

50:                                               ; preds = %32, %48
  %51 = load i32, i32* %34, align 4, !tbaa !5
  store i32 %51, i32* %36, align 4, !tbaa !5
  %52 = add nsw i32 %33, 1
  br label %53

53:                                               ; preds = %48, %50
  %54 = phi i32 [ %33, %48 ], [ %52, %50 ]
  %55 = getelementptr inbounds i32, i32* %34, i64 1
  %56 = icmp ult i32* %55, %14
  br i1 %56, label %32, label %25, !llvm.loop !12

57:                                               ; preds = %27, %57
  %58 = phi i64 [ %62, %57 ], [ 1, %27 ]
  %59 = getelementptr inbounds [300 x i32], [300 x i32]* %3, i64 0, i64 %58
  %60 = load i32, i32* %59, align 4, !tbaa !5
  %61 = call i32 (i8*, ...) @printf(i8* nonnull dereferenceable(1) getelementptr inbounds ([4 x i8], [4 x i8]* @.str.1, i64 0, i64 0), i32 %60)
  %62 = add nuw nsw i64 %58, 1
  %63 = icmp eq i64 %62, %28
  br i1 %63, label %64, label %57, !llvm.loop !13

64:                                               ; preds = %57, %13, %27, %25
  call void @llvm.lifetime.end.p0i8(i64 1200, i8* nonnull %6) #3
  call void @llvm.lifetime.end.p0i8(i64 1200, i8* nonnull %5) #3
  call void @llvm.lifetime.end.p0i8(i64 4, i8* nonnull %4) #3
  ret void
}

; Function Attrs: argmemonly mustprogress nofree nosync nounwind willreturn
declare void @llvm.lifetime.start.p0i8(i64 immarg, i8* nocapture) #1

; Function Attrs: nofree nounwind
declare noundef i32 @__isoc99_scanf(i8* nocapture noundef readonly, ...) local_unnamed_addr #2

; Function Attrs: nofree nounwind
declare noundef i32 @printf(i8* nocapture noundef readonly, ...) local_unnamed_addr #2

; Function Attrs: argmemonly mustprogress nofree nosync nounwind willreturn
declare void @llvm.lifetime.end.p0i8(i64 immarg, i8* nocapture) #1


!llvm.module.flags = !{!0, !1, !2, !3}
!llvm.ident = !{!4}

!0 = !{i32 1, !"wchar_size", i32 4}
!1 = !{i32 7, !"PIC Level", i32 2}
!2 = !{i32 7, !"PIE Level", i32 2}
!3 = !{i32 7, !"uwtable", i32 1}
!4 = !{!"clang version 13.0.0"}
!5 = !{!6, !6, i64 0}
!6 = !{!"int", !7, i64 0}
!7 = !{!"omnipotent char", !8, i64 0}
!8 = !{!"Simple C/C++ TBAA"}
!9 = distinct !{!9, !10}
!10 = !{!"llvm.loop.mustprogress"}
!11 = distinct !{!11, !10}
!12 = distinct !{!12, !10}
!13 = distinct !{!13, !10, !14}
!14 = !{!"llvm.loop.peeled.count", i32 1}
